
ATtiny4 code.elf:     file format elf32-avr

Sections:
Idx Name          Size      VMA       LMA       File off  Algn
  0 .text         000001e2  00000000  00000000  00000074  2**1
                  CONTENTS, ALLOC, LOAD, READONLY, CODE
  1 .data         00000000  00800040  00800040  00000256  2**0
                  CONTENTS, ALLOC, LOAD, DATA
  2 .bss          00000006  00800040  00800040  00000256  2**0
                  ALLOC
  3 .comment      00000030  00000000  00000000  00000256  2**0
                  CONTENTS, READONLY
  4 .note.gnu.avr.deviceinfo 0000003c  00000000  00000000  00000288  2**2
                  CONTENTS, READONLY
  5 .debug_info   000002ab  00000000  00000000  000002c4  2**0
                  CONTENTS, READONLY, DEBUGGING
  6 .debug_abbrev 00000284  00000000  00000000  0000056f  2**0
                  CONTENTS, READONLY, DEBUGGING
  7 .debug_line   000000d3  00000000  00000000  000007f3  2**0
                  CONTENTS, READONLY, DEBUGGING
  8 .debug_str    000000f6  00000000  00000000  000008c6  2**0
                  CONTENTS, READONLY, DEBUGGING

Disassembly of section .text:

00000000 <__vectors>:
   0:	09 c0       	rjmp	.+18     	; 0x14 <__ctors_end>
   2:	8f c0       	rjmp	.+286    	; 0x122 <__vector_1>
   4:	17 c0       	rjmp	.+46     	; 0x34 <__bad_interrupt>
   6:	16 c0       	rjmp	.+44     	; 0x34 <__bad_interrupt>
   8:	15 c0       	rjmp	.+42     	; 0x34 <__bad_interrupt>
   a:	c1 c0       	rjmp	.+386    	; 0x18e <__vector_5>
   c:	13 c0       	rjmp	.+38     	; 0x34 <__bad_interrupt>
   e:	12 c0       	rjmp	.+36     	; 0x34 <__bad_interrupt>
  10:	11 c0       	rjmp	.+34     	; 0x34 <__bad_interrupt>
  12:	10 c0       	rjmp	.+32     	; 0x34 <__bad_interrupt>

00000014 <__ctors_end>:
  14:	11 27       	eor	r17, r17
  16:	1f bf       	out	0x3f, r17	; 63
  18:	cf e5       	ldi	r28, 0x5F	; 95
  1a:	d0 e0       	ldi	r29, 0x00	; 0
  1c:	de bf       	out	0x3e, r29	; 62
  1e:	cd bf       	out	0x3d, r28	; 61

00000020 <__do_clear_bss>:
  20:	20 e0       	ldi	r18, 0x00	; 0
  22:	a0 e4       	ldi	r26, 0x40	; 64
  24:	b0 e0       	ldi	r27, 0x00	; 0
  26:	01 c0       	rjmp	.+2      	; 0x2a <.do_clear_bss_start>

00000028 <.do_clear_bss_loop>:
  28:	1d 93       	st	X+, r17

0000002a <.do_clear_bss_start>:
  2a:	a6 34       	cpi	r26, 0x46	; 70
  2c:	b2 07       	cpc	r27, r18
  2e:	e1 f7       	brne	.-8      	; 0x28 <.do_clear_bss_loop>
  30:	d3 d0       	rcall	.+422    	; 0x1d8 <main>
  32:	d5 c0       	rjmp	.+426    	; 0x1de <_exit>

00000034 <__bad_interrupt>:
  34:	e5 cf       	rjmp	.-54     	; 0x0 <__vectors>

00000036 <attiny4_init>:
  36:	4f b7       	in	r20, 0x3f	; 63
  38:	4f 77       	andi	r20, 0x7F	; 127
  3a:	4f bf       	out	0x3f, r20	; 63
  3c:	17 bf       	out	0x37, r17	; 55
  3e:	48 ed       	ldi	r20, 0xD8	; 216
  40:	4c bf       	out	0x3c, r20	; 60
  42:	16 bf       	out	0x36, r17	; 54
  44:	41 e0       	ldi	r20, 0x01	; 1
  46:	43 bb       	out	0x13, r20	; 19
  48:	15 bb       	out	0x15, r17	; 21
  4a:	a0 9a       	sbi	0x14, 0	; 20
  4c:	68 e0       	ldi	r22, 0x08	; 8
  4e:	70 e0       	ldi	r23, 0x00	; 0
  50:	7e bd       	out	0x2e, r23	; 46
  52:	6d bd       	out	0x2d, r22	; 45
  54:	19 bd       	out	0x29, r17	; 41
  56:	18 bd       	out	0x28, r17	; 40
  58:	60 e5       	ldi	r22, 0x50	; 80
  5a:	73 ec       	ldi	r23, 0xC3	; 195
  5c:	77 bd       	out	0x27, r23	; 39
  5e:	66 bd       	out	0x26, r22	; 38
  60:	52 e0       	ldi	r21, 0x02	; 2
  62:	5b bd       	out	0x2b, r21	; 43
  64:	41 b9       	out	0x01, r20	; 1
  66:	44 e0       	ldi	r20, 0x04	; 4
  68:	43 b9       	out	0x03, r20	; 3
  6a:	42 b9       	out	0x02, r20	; 2
  6c:	4f b7       	in	r20, 0x3f	; 63
  6e:	40 68       	ori	r20, 0x80	; 128
  70:	4f bf       	out	0x3f, r20	; 63
  72:	4a b7       	in	r20, 0x3a	; 58
  74:	41 7f       	andi	r20, 0xF1	; 241
  76:	44 60       	ori	r20, 0x04	; 4
  78:	4a bf       	out	0x3a, r20	; 58
  7a:	4a b7       	in	r20, 0x3a	; 58
  7c:	41 60       	ori	r20, 0x01	; 1
  7e:	4a bf       	out	0x3a, r20	; 58
  80:	88 95       	sleep
  82:	08 95       	ret

00000084 <mainApplication>:
  84:	e4 e4       	ldi	r30, 0x44	; 68
  86:	f0 e0       	ldi	r31, 0x00	; 0
  88:	40 81       	ld	r20, Z
  8a:	ef 5f       	subi	r30, 0xFF	; 255
  8c:	ff 4f       	sbci	r31, 0xFF	; 255
  8e:	50 81       	ld	r21, Z
  90:	e1 50       	subi	r30, 0x01	; 1
  92:	f0 40       	sbci	r31, 0x00	; 0
  94:	49 3c       	cpi	r20, 0xC9	; 201
  96:	51 07       	cpc	r21, r17
  98:	c0 f4       	brcc	.+48     	; 0xca <mainApplication+0x46>
  9a:	44 51       	subi	r20, 0x14	; 20
  9c:	51 0b       	sbc	r21, r17
  9e:	45 31       	cpi	r20, 0x15	; 21
  a0:	51 07       	cpc	r21, r17
  a2:	a0 f4       	brcc	.+40     	; 0xcc <mainApplication+0x48>
  a4:	e0 e4       	ldi	r30, 0x40	; 64
  a6:	f0 e0       	ldi	r31, 0x00	; 0
  a8:	40 81       	ld	r20, Z
  aa:	41 13       	cpse	r20, r17
  ac:	0b c0       	rjmp	.+22     	; 0xc4 <mainApplication+0x40>
  ae:	10 9a       	sbi	0x02, 0	; 2
  b0:	41 e0       	ldi	r20, 0x01	; 1
  b2:	40 83       	st	Z, r20
  b4:	e2 e4       	ldi	r30, 0x42	; 66
  b6:	f0 e0       	ldi	r31, 0x00	; 0
  b8:	11 93       	st	Z+, r17
  ba:	10 83       	st	Z, r17
  bc:	e1 e4       	ldi	r30, 0x41	; 65
  be:	f0 e0       	ldi	r31, 0x00	; 0
  c0:	10 83       	st	Z, r17
  c2:	08 95       	ret
  c4:	41 30       	cpi	r20, 0x01	; 1
  c6:	11 f4       	brne	.+4      	; 0xcc <mainApplication+0x48>
  c8:	10 83       	st	Z, r17
  ca:	b5 cf       	rjmp	.-150    	; 0x36 <attiny4_init>
  cc:	a2 e4       	ldi	r26, 0x42	; 66
  ce:	b0 e0       	ldi	r27, 0x00	; 0
  d0:	4c 91       	ld	r20, X
  d2:	af 5f       	subi	r26, 0xFF	; 255
  d4:	bf 4f       	sbci	r27, 0xFF	; 255
  d6:	5c 91       	ld	r21, X
  d8:	a1 50       	subi	r26, 0x01	; 1
  da:	b0 40       	sbci	r27, 0x00	; 0
  dc:	4c 33       	cpi	r20, 0x3C	; 60
  de:	51 07       	cpc	r21, r17
  e0:	c0 f0       	brcs	.+48     	; 0x112 <__DATA_REGION_LENGTH__+0x12>
  e2:	01 99       	sbic	0x00, 1	; 0
  e4:	16 c0       	rjmp	.+44     	; 0x112 <__DATA_REGION_LENGTH__+0x12>
  e6:	e1 e4       	ldi	r30, 0x41	; 65
  e8:	f0 e0       	ldi	r31, 0x00	; 0
  ea:	40 81       	ld	r20, Z
  ec:	42 30       	cpi	r20, 0x02	; 2
  ee:	88 f4       	brcc	.+34     	; 0x112 <__DATA_REGION_LENGTH__+0x12>
  f0:	4f b7       	in	r20, 0x3f	; 63
  f2:	4f 77       	andi	r20, 0x7F	; 127
  f4:	4f bf       	out	0x3f, r20	; 63
  f6:	10 98       	cbi	0x02, 0	; 2
  f8:	10 9a       	sbi	0x02, 0	; 2
  fa:	1d 93       	st	X+, r17
  fc:	1c 93       	st	X, r17
  fe:	40 81       	ld	r20, Z
 100:	4f 5f       	subi	r20, 0xFF	; 255
 102:	40 83       	st	Z, r20
 104:	4f b7       	in	r20, 0x3f	; 63
 106:	40 68       	ori	r20, 0x80	; 128
 108:	4f bf       	out	0x3f, r20	; 63
 10a:	40 81       	ld	r20, Z
 10c:	42 30       	cpi	r20, 0x02	; 2
 10e:	41 f4       	brne	.+16     	; 0x120 <__DATA_REGION_LENGTH__+0x20>
 110:	dc cf       	rjmp	.-72     	; 0xca <mainApplication+0x46>
 112:	02 9b       	sbis	0x00, 2	; 0
 114:	05 c0       	rjmp	.+10     	; 0x120 <__DATA_REGION_LENGTH__+0x20>
 116:	e0 e4       	ldi	r30, 0x40	; 64
 118:	f0 e0       	ldi	r31, 0x00	; 0
 11a:	40 81       	ld	r20, Z
 11c:	44 23       	and	r20, r20
 11e:	a9 f2       	breq	.-86     	; 0xca <mainApplication+0x46>
 120:	08 95       	ret

00000122 <__vector_1>:
 122:	1f 93       	push	r17
 124:	0f 93       	push	r16
 126:	0f b7       	in	r16, 0x3f	; 63
 128:	0f 93       	push	r16
 12a:	10 e0       	ldi	r17, 0x00	; 0
 12c:	4f 93       	push	r20
 12e:	5f 93       	push	r21
 130:	ef 93       	push	r30
 132:	ff 93       	push	r31
 134:	e4 e4       	ldi	r30, 0x44	; 68
 136:	f0 e0       	ldi	r31, 0x00	; 0
 138:	11 93       	st	Z+, r17
 13a:	10 83       	st	Z, r17
 13c:	45 b3       	in	r20, 0x15	; 21
 13e:	41 13       	cpse	r20, r17
 140:	16 c0       	rjmp	.+44     	; 0x16e <__vector_1+0x4c>
 142:	42 e0       	ldi	r20, 0x02	; 2
 144:	45 bb       	out	0x15, r20	; 21
 146:	19 bd       	out	0x29, r17	; 41
 148:	18 bd       	out	0x28, r17	; 40
 14a:	4d b5       	in	r20, 0x2d	; 45
 14c:	5e b5       	in	r21, 0x2e	; 46
 14e:	48 7f       	andi	r20, 0xF8	; 248
 150:	5e bd       	out	0x2e, r21	; 46
 152:	4d bd       	out	0x2d, r20	; 45
 154:	4d b5       	in	r20, 0x2d	; 45
 156:	5e b5       	in	r21, 0x2e	; 46
 158:	42 60       	ori	r20, 0x02	; 2
 15a:	5e bd       	out	0x2e, r21	; 46
 15c:	4d bd       	out	0x2d, r20	; 45
 15e:	e2 e4       	ldi	r30, 0x42	; 66
 160:	f0 e0       	ldi	r31, 0x00	; 0
 162:	11 93       	st	Z+, r17
 164:	10 83       	st	Z, r17
 166:	e0 e4       	ldi	r30, 0x40	; 64
 168:	f0 e0       	ldi	r31, 0x00	; 0
 16a:	10 83       	st	Z, r17
 16c:	07 c0       	rjmp	.+14     	; 0x17c <__vector_1+0x5a>
 16e:	45 b3       	in	r20, 0x15	; 21
 170:	42 30       	cpi	r20, 0x02	; 2
 172:	21 f4       	brne	.+8      	; 0x17c <__vector_1+0x5a>
 174:	41 e0       	ldi	r20, 0x01	; 1
 176:	e0 e4       	ldi	r30, 0x40	; 64
 178:	f0 e0       	ldi	r31, 0x00	; 0
 17a:	40 83       	st	Z, r20
 17c:	ff 91       	pop	r31
 17e:	ef 91       	pop	r30
 180:	5f 91       	pop	r21
 182:	4f 91       	pop	r20
 184:	0f 91       	pop	r16
 186:	0f bf       	out	0x3f, r16	; 63
 188:	0f 91       	pop	r16
 18a:	1f 91       	pop	r17
 18c:	18 95       	reti

0000018e <__vector_5>:
 18e:	1f 93       	push	r17
 190:	0f 93       	push	r16
 192:	0f b7       	in	r16, 0x3f	; 63
 194:	0f 93       	push	r16
 196:	10 e0       	ldi	r17, 0x00	; 0
 198:	4f 93       	push	r20
 19a:	5f 93       	push	r21
 19c:	ef 93       	push	r30
 19e:	ff 93       	push	r31
 1a0:	02 99       	sbic	0x00, 2	; 0
 1a2:	03 c0       	rjmp	.+6      	; 0x1aa <__vector_5+0x1c>
 1a4:	e4 e4       	ldi	r30, 0x44	; 68
 1a6:	f0 e0       	ldi	r31, 0x00	; 0
 1a8:	04 c0       	rjmp	.+8      	; 0x1b2 <__vector_5+0x24>
 1aa:	01 99       	sbic	0x00, 1	; 0
 1ac:	0c c0       	rjmp	.+24     	; 0x1c6 <__vector_5+0x38>
 1ae:	e2 e4       	ldi	r30, 0x42	; 66
 1b0:	f0 e0       	ldi	r31, 0x00	; 0
 1b2:	40 81       	ld	r20, Z
 1b4:	ef 5f       	subi	r30, 0xFF	; 255
 1b6:	ff 4f       	sbci	r31, 0xFF	; 255
 1b8:	50 81       	ld	r21, Z
 1ba:	e1 50       	subi	r30, 0x01	; 1
 1bc:	f0 40       	sbci	r31, 0x00	; 0
 1be:	4f 5f       	subi	r20, 0xFF	; 255
 1c0:	5f 4f       	sbci	r21, 0xFF	; 255
 1c2:	41 93       	st	Z+, r20
 1c4:	50 83       	st	Z, r21
 1c6:	ff 91       	pop	r31
 1c8:	ef 91       	pop	r30
 1ca:	5f 91       	pop	r21
 1cc:	4f 91       	pop	r20
 1ce:	0f 91       	pop	r16
 1d0:	0f bf       	out	0x3f, r16	; 63
 1d2:	0f 91       	pop	r16
 1d4:	1f 91       	pop	r17
 1d6:	18 95       	reti

000001d8 <main>:
 1d8:	2e df       	rcall	.-420    	; 0x36 <attiny4_init>
 1da:	54 df       	rcall	.-344    	; 0x84 <mainApplication>
 1dc:	fe cf       	rjmp	.-4      	; 0x1da <main+0x2>

000001de <_exit>:
 1de:	f8 94       	cli

000001e0 <__stop_program>:
 1e0:	ff cf       	rjmp	.-2      	; 0x1e0 <__stop_program>
